; Function Attrs: mustprogress uwtable
define internal noundef zeroext i1 @_ZN4Luau12_GLOBAL__N_115FindCyclicTypes5visitEPKNS_4TypeERKNS_8FreeTypeE(ptr noundef nonnull align 8 dereferenceable(272) %0, ptr noundef %1, ptr noundef nonnull readonly align 8 captures(none) dereferenceable(48) %2) unnamed_addr #6 align 2 {
  %4 = alloca ptr, align 8
  store ptr %1, ptr %4, align 8, !tbaa !158
  %5 = getelementptr inbounds nuw i8, ptr %0, i64 80
  %6 = call noundef nonnull align 1 dereferenceable(1) ptr @_ZN4Luau12DenseHashMapIPKNS_4TypeEbNS_16DenseHashPointerESt8equal_toIS3_EEixERKS3_(ptr noundef nonnull align 8 dereferenceable(48) %5, ptr noundef nonnull align 8 dereferenceable(8) %4)
  %7 = load i8, ptr %6, align 1, !tbaa !156, !range !16, !noundef !17
  %8 = trunc nuw i8 %7 to i1
  br i1 %8, label %_ZN4Luau3SetIPKNS_4TypeENS_16DenseHashPointerEE6insertERKS3_.exit, label %9

9:                                                ; preds = %3
  store i8 1, ptr %6, align 1, !tbaa !156
  %10 = getelementptr inbounds nuw i8, ptr %0, i64 120
  %11 = load i64, ptr %10, align 8, !tbaa !1284
  %12 = add i64 %11, 1
  store i64 %12, ptr %10, align 8, !tbaa !1284
  %13 = load i8, ptr @_ZN5FFlag12LuauSolverV2E, align 8, !tbaa !468, !range !16, !noundef !17
  %14 = trunc nuw i8 %13 to i1
  br i1 %14, label %15, label %_ZN4Luau3SetIPKNS_4TypeENS_16DenseHashPointerEE6insertERKS3_.exit

15:                                               ; preds = %9
  %16 = getelementptr inbounds nuw i8, ptr %2, i64 32
  %17 = load ptr, ptr %16, align 8, !tbaa !533
  %.not = icmp eq ptr %17, null
  br i1 %.not, label %19, label %18

18:                                               ; preds = %15
  call void @_ZN4Luau18GenericTypeVisitorISt13unordered_setIPvSt4hashIS2_ESt8equal_toIS2_ESaIS2_EEE8traverseEPKNS_4TypeE(ptr noundef nonnull align 8 dereferenceable(76) %0, ptr noundef nonnull %17)
  br label %19

19:                                               ; preds = %18, %15
  %20 = getelementptr inbounds nuw i8, ptr %2, i64 40
  %21 = load ptr, ptr %20, align 8, !tbaa !535
  %.not7 = icmp eq ptr %21, null
  br i1 %.not7, label %_ZN4Luau3SetIPKNS_4TypeENS_16DenseHashPointerEE6insertERKS3_.exit, label %22

22:                                               ; preds = %19
  call void @_ZN4Luau18GenericTypeVisitorISt13unordered_setIPvSt4hashIS2_ESt8equal_toIS2_ESaIS2_EEE8traverseEPKNS_4TypeE(ptr noundef nonnull align 8 dereferenceable(76) %0, ptr noundef nonnull %21)
  br label %_ZN4Luau3SetIPKNS_4TypeENS_16DenseHashPointerEE6insertERKS3_.exit

_ZN4Luau3SetIPKNS_4TypeENS_16DenseHashPointerEE6insertERKS3_.exit: ; preds = %3, %9, %22, %19
  ret i1 false
}